; Function Attrs: mustprogress uwtable
define noundef i64 @_ZN11duckdb_zstd20ZSTD_decompressBlockEPNS_11ZSTD_DCtx_sEPvmPKvm(ptr noundef initializes((30176, 30180)) %0, ptr noundef %1, i64 noundef %2, ptr noundef %3, i64 noundef %4) local_unnamed_addr #2 {
  %6 = getelementptr inbounds nuw i8, ptr %0, i64 30176
  store i32 0, ptr %6, align 8, !tbaa !14
  %7 = getelementptr inbounds nuw i8, ptr %0, i64 29888
  %8 = load ptr, ptr %7, align 8, !tbaa !142
  %9 = icmp ne ptr %1, %8
  %10 = icmp ne i64 %2, 0
  %or.cond.i.i = and i1 %10, %9
  br i1 %or.cond.i.i, label %11, label %_ZN11duckdb_zstd20ZSTD_checkContinuityEPNS_11ZSTD_DCtx_sEPKvm.exit.i

11:                                               ; preds = %5
  %12 = getelementptr inbounds nuw i8, ptr %0, i64 29912
  store ptr %8, ptr %12, align 8, !tbaa !77
  %13 = getelementptr inbounds nuw i8, ptr %0, i64 29896
  %14 = load ptr, ptr %13, align 8, !tbaa !76
  %15 = ptrtoint ptr %8 to i64
  %16 = ptrtoint ptr %14 to i64
  %.neg.i.i = sub i64 %16, %15
  %17 = getelementptr inbounds i8, ptr %1, i64 %.neg.i.i
  %18 = getelementptr inbounds nuw i8, ptr %0, i64 29904
  store ptr %17, ptr %18, align 8, !tbaa !72
  store ptr %1, ptr %13, align 8, !tbaa !76
  store ptr %1, ptr %7, align 8, !tbaa !142
  br label %_ZN11duckdb_zstd20ZSTD_checkContinuityEPNS_11ZSTD_DCtx_sEPKvm.exit.i

_ZN11duckdb_zstd20ZSTD_checkContinuityEPNS_11ZSTD_DCtx_sEPKvm.exit.i: ; preds = %11, %5
  %19 = tail call noundef i64 @_ZN11duckdb_zstd29ZSTD_decompressBlock_internalEPNS_11ZSTD_DCtx_sEPvmPKvmNS_19streaming_operationE(ptr noundef nonnull %0, ptr noundef %1, i64 noundef %2, ptr noundef %3, i64 noundef %4, i32 noundef 0)
  %20 = icmp ult i64 %19, -119
  br i1 %20, label %21, label %_ZN11duckdb_zstd31ZSTD_decompressBlock_deprecatedEPNS_11ZSTD_DCtx_sEPvmPKvm.exit

21:                                               ; preds = %_ZN11duckdb_zstd20ZSTD_checkContinuityEPNS_11ZSTD_DCtx_sEPKvm.exit.i
  %22 = getelementptr inbounds nuw i8, ptr %1, i64 %19
  store ptr %22, ptr %7, align 8, !tbaa !142
  br label %_ZN11duckdb_zstd31ZSTD_decompressBlock_deprecatedEPNS_11ZSTD_DCtx_sEPvmPKvm.exit

_ZN11duckdb_zstd31ZSTD_decompressBlock_deprecatedEPNS_11ZSTD_DCtx_sEPvmPKvm.exit: ; preds = %_ZN11duckdb_zstd20ZSTD_checkContinuityEPNS_11ZSTD_DCtx_sEPKvm.exit.i, %21
  ret i64 %19
}